
./test/test.om:     file format elf32-littleriscv


Disassembly of section .rom:

00000000 <.rom>:
   0:	00020137          	lui	sp,0x20
   4:	1e4010ef          	jal	ra,11e8 <main>
   8:	0ff00513          	li	a0,255
   c:	000306b7          	lui	a3,0x30
  10:	00a68223          	sb	a0,4(a3) # 30004 <__heap_start+0x2e004>
  14:	ff9ff06f          	j	c <printBoard-0xff4>

Disassembly of section .text:

00001000 <printBoard>:
    1000:	00001837          	lui	a6,0x1
    1004:	21082783          	lw	a5,528(a6) # 1210 <N>
    1008:	06f05263          	blez	a5,106c <printBoard+0x6c>
    100c:	00001537          	lui	a0,0x1
    1010:	21450513          	addi	a0,a0,532 # 1214 <col>
    1014:	00000313          	li	t1,0
    1018:	000018b7          	lui	a7,0x1
    101c:	000306b7          	lui	a3,0x30
    1020:	00001e37          	lui	t3,0x1
    1024:	00a00e93          	li	t4,10
    1028:	00000613          	li	a2,0
    102c:	00052583          	lw	a1,0(a0)
    1030:	20c88713          	addi	a4,a7,524 # 120c <main+0x24>
    1034:	02000793          	li	a5,32
    1038:	04c58263          	beq	a1,a2,107c <printBoard+0x7c>
    103c:	00f68023          	sb	a5,0(a3) # 30000 <__heap_start+0x2e000>
    1040:	00174783          	lbu	a5,1(a4)
    1044:	00170713          	addi	a4,a4,1
    1048:	fe079ae3          	bnez	a5,103c <printBoard+0x3c>
    104c:	21082783          	lw	a5,528(a6)
    1050:	00160613          	addi	a2,a2,1
    1054:	fcf64ce3          	blt	a2,a5,102c <printBoard+0x2c>
    1058:	01d68023          	sb	t4,0(a3)
    105c:	21082783          	lw	a5,528(a6)
    1060:	00130313          	addi	t1,t1,1
    1064:	00450513          	addi	a0,a0,4
    1068:	fcf340e3          	blt	t1,a5,1028 <printBoard+0x28>
    106c:	000307b7          	lui	a5,0x30
    1070:	00a00713          	li	a4,10
    1074:	00e78023          	sb	a4,0(a5) # 30000 <__heap_start+0x2e000>
    1078:	00008067          	ret
    107c:	208e0713          	addi	a4,t3,520 # 1208 <main+0x20>
    1080:	00f68023          	sb	a5,0(a3)
    1084:	00174783          	lbu	a5,1(a4)
    1088:	00170713          	addi	a4,a4,1
    108c:	fe079ae3          	bnez	a5,1080 <printBoard+0x80>
    1090:	21082783          	lw	a5,528(a6)
    1094:	00160613          	addi	a2,a2,1
    1098:	f8f64ae3          	blt	a2,a5,102c <printBoard+0x2c>
    109c:	fbdff06f          	j	1058 <printBoard+0x58>

000010a0 <search>:
    10a0:	fd010113          	addi	sp,sp,-48 # 1ffd0 <__heap_start+0x1dfd0>
    10a4:	01612823          	sw	s6,16(sp)
    10a8:	00001b37          	lui	s6,0x1
    10ac:	210b2783          	lw	a5,528(s6) # 1210 <N>
    10b0:	02112623          	sw	ra,44(sp)
    10b4:	02812423          	sw	s0,40(sp)
    10b8:	02912223          	sw	s1,36(sp)
    10bc:	03212023          	sw	s2,32(sp)
    10c0:	01312e23          	sw	s3,28(sp)
    10c4:	01412c23          	sw	s4,24(sp)
    10c8:	01512a23          	sw	s5,20(sp)
    10cc:	01712623          	sw	s7,12(sp)
    10d0:	01812423          	sw	s8,8(sp)
    10d4:	0ea78263          	beq	a5,a0,11b8 <search+0x118>
    10d8:	06f05863          	blez	a5,1148 <search+0xa8>
    10dc:	00001a37          	lui	s4,0x1
    10e0:	214a0a13          	addi	s4,s4,532 # 1214 <col>
    10e4:	00251713          	slli	a4,a0,0x2
    10e8:	040a0913          	addi	s2,s4,64
    10ec:	00050993          	mv	s3,a0
    10f0:	020a0493          	addi	s1,s4,32
    10f4:	00e90933          	add	s2,s2,a4
    10f8:	00000413          	li	s0,0
    10fc:	00100b93          	li	s7,1
    1100:	00ea0ab3          	add	s5,s4,a4
    1104:	00150c13          	addi	s8,a0,1
    1108:	0004a703          	lw	a4,0(s1)
    110c:	02071463          	bnez	a4,1134 <search+0x94>
    1110:	00f407b3          	add	a5,s0,a5
    1114:	413787b3          	sub	a5,a5,s3
    1118:	00092703          	lw	a4,0(s2)
    111c:	00f78793          	addi	a5,a5,15
    1120:	00279793          	slli	a5,a5,0x2
    1124:	00fa07b3          	add	a5,s4,a5
    1128:	00071663          	bnez	a4,1134 <search+0x94>
    112c:	0407a703          	lw	a4,64(a5)
    1130:	04070463          	beqz	a4,1178 <search+0xd8>
    1134:	210b2783          	lw	a5,528(s6)
    1138:	00140413          	addi	s0,s0,1
    113c:	00448493          	addi	s1,s1,4
    1140:	00490913          	addi	s2,s2,4
    1144:	fcf442e3          	blt	s0,a5,1108 <search+0x68>
    1148:	02c12083          	lw	ra,44(sp)
    114c:	02812403          	lw	s0,40(sp)
    1150:	02412483          	lw	s1,36(sp)
    1154:	02012903          	lw	s2,32(sp)
    1158:	01c12983          	lw	s3,28(sp)
    115c:	01812a03          	lw	s4,24(sp)
    1160:	01412a83          	lw	s5,20(sp)
    1164:	01012b03          	lw	s6,16(sp)
    1168:	00c12b83          	lw	s7,12(sp)
    116c:	00812c03          	lw	s8,8(sp)
    1170:	03010113          	addi	sp,sp,48
    1174:	00008067          	ret
    1178:	0577a023          	sw	s7,64(a5)
    117c:	000c0513          	mv	a0,s8
    1180:	01792023          	sw	s7,0(s2)
    1184:	0174a023          	sw	s7,0(s1)
    1188:	008aa023          	sw	s0,0(s5)
    118c:	f15ff0ef          	jal	ra,10a0 <search>
    1190:	210b2783          	lw	a5,528(s6)
    1194:	0004a023          	sw	zero,0(s1)
    1198:	00878733          	add	a4,a5,s0
    119c:	41370733          	sub	a4,a4,s3
    11a0:	00f70713          	addi	a4,a4,15
    11a4:	00271713          	slli	a4,a4,0x2
    11a8:	00ea0733          	add	a4,s4,a4
    11ac:	04072023          	sw	zero,64(a4)
    11b0:	00092023          	sw	zero,0(s2)
    11b4:	f85ff06f          	j	1138 <search+0x98>
    11b8:	02812403          	lw	s0,40(sp)
    11bc:	02c12083          	lw	ra,44(sp)
    11c0:	02412483          	lw	s1,36(sp)
    11c4:	02012903          	lw	s2,32(sp)
    11c8:	01c12983          	lw	s3,28(sp)
    11cc:	01812a03          	lw	s4,24(sp)
    11d0:	01412a83          	lw	s5,20(sp)
    11d4:	01012b03          	lw	s6,16(sp)
    11d8:	00c12b83          	lw	s7,12(sp)
    11dc:	00812c03          	lw	s8,8(sp)
    11e0:	03010113          	addi	sp,sp,48
    11e4:	e1dff06f          	j	1000 <printBoard>

Disassembly of section .text.startup:

000011e8 <main>:
    11e8:	ff010113          	addi	sp,sp,-16
    11ec:	00000513          	li	a0,0
    11f0:	00112623          	sw	ra,12(sp)
    11f4:	eadff0ef          	jal	ra,10a0 <search>
    11f8:	00c12083          	lw	ra,12(sp)
    11fc:	00000513          	li	a0,0
    1200:	01010113          	addi	sp,sp,16
    1204:	00008067          	ret
